                                      1 ;--------------------------------------------------------
                                      2 ; File Created by SDCC : free open source ANSI-C Compiler
                                      3 ; Version 3.6.0 #9615 (Mac OS X x86_64)
                                      4 ;--------------------------------------------------------
                                      5 	.module ledss
                                      6 	.optsdcc -mstm8
                                      7 	
                                      8 ;--------------------------------------------------------
                                      9 ; Public variables in this module
                                     10 ;--------------------------------------------------------
                                     11 	.globl _TIMER_CheckTimeMS
                                     12 	.globl _TIMER_InitTime
                                     13 	.globl _GPIO_WriteLow
                                     14 	.globl _GPIO_WriteHigh
                                     15 	.globl _GPIO_Init
                                     16 	.globl _led
                                     17 	.globl _led_change
                                     18 	.globl _led_getstatus
                                     19 	.globl _ledstt_init
                                     20 	.globl _ledstt_manager
                                     21 ;--------------------------------------------------------
                                     22 ; ram data
                                     23 ;--------------------------------------------------------
                                     24 	.area DATA
      000000                         25 _led::
      000000                         26 	.ds 9
                                     27 ;--------------------------------------------------------
                                     28 ; ram data
                                     29 ;--------------------------------------------------------
                                     30 	.area INITIALIZED
                                     31 ;--------------------------------------------------------
                                     32 ; absolute external ram data
                                     33 ;--------------------------------------------------------
                                     34 	.area DABS (ABS)
                                     35 ;--------------------------------------------------------
                                     36 ; global & static initialisations
                                     37 ;--------------------------------------------------------
                                     38 	.area HOME
                                     39 	.area GSINIT
                                     40 	.area GSFINAL
                                     41 	.area GSINIT
                                     42 ;--------------------------------------------------------
                                     43 ; Home
                                     44 ;--------------------------------------------------------
                                     45 	.area HOME
                                     46 	.area HOME
                                     47 ;--------------------------------------------------------
                                     48 ; code
                                     49 ;--------------------------------------------------------
                                     50 	.area CODE
                                     51 ;	user/ledss.c: 4: void led_change(uint8_t mode, uint8_t time)
                                     52 ;	-----------------------------------------
                                     53 ;	 function led_change
                                     54 ;	-----------------------------------------
      000000                         55 _led_change:
      000000 89               [ 2]   56 	pushw	x
                                     57 ;	user/ledss.c: 6: led.mode = mode;
      000001 AEr00r00         [ 2]   58 	ldw	x, #_led+0
      000004 1F 01            [ 2]   59 	ldw	(0x01, sp), x
      000006 1E 01            [ 2]   60 	ldw	x, (0x01, sp)
      000008 7B 05            [ 1]   61 	ld	a, (0x05, sp)
      00000A E7 06            [ 1]   62 	ld	(0x0006, x), a
                                     63 ;	user/ledss.c: 7: led.timeOn = time;
      00000C 1E 01            [ 2]   64 	ldw	x, (0x01, sp)
      00000E 7B 06            [ 1]   65 	ld	a, (0x06, sp)
      000010 E7 07            [ 1]   66 	ld	(0x0007, x), a
      000012 85               [ 2]   67 	popw	x
      000013 81               [ 4]   68 	ret
                                     69 ;	user/ledss.c: 10: uint8_t led_getstatus(void)
                                     70 ;	-----------------------------------------
                                     71 ;	 function led_getstatus
                                     72 ;	-----------------------------------------
      000014                         73 _led_getstatus:
                                     74 ;	user/ledss.c: 12: return led.mode;
      000014 AEr00r06         [ 2]   75 	ldw	x, #_led+6
      000017 F6               [ 1]   76 	ld	a, (x)
      000018 81               [ 4]   77 	ret
                                     78 ;	user/ledss.c: 15: void ledstt_init(void)
                                     79 ;	-----------------------------------------
                                     80 ;	 function ledstt_init
                                     81 ;	-----------------------------------------
      000019                         82 _ledstt_init:
      000019 89               [ 2]   83 	pushw	x
                                     84 ;	user/ledss.c: 17: led.mode = LED_OFF;
      00001A AEr00r00         [ 2]   85 	ldw	x, #_led+0
      00001D 1F 01            [ 2]   86 	ldw	(0x01, sp), x
      00001F 1E 01            [ 2]   87 	ldw	x, (0x01, sp)
      000021 1C 00 06         [ 2]   88 	addw	x, #0x0006
      000024 7F               [ 1]   89 	clr	(x)
                                     90 ;	user/ledss.c: 18: led.timeOn = 0;
      000025 1E 01            [ 2]   91 	ldw	x, (0x01, sp)
      000027 1C 00 07         [ 2]   92 	addw	x, #0x0007
      00002A 7F               [ 1]   93 	clr	(x)
                                     94 ;	user/ledss.c: 19: led.cycle = 0;
      00002B 1E 01            [ 2]   95 	ldw	x, (0x01, sp)
      00002D 1C 00 08         [ 2]   96 	addw	x, #0x0008
      000030 7F               [ 1]   97 	clr	(x)
                                     98 ;	user/ledss.c: 20: GPIO_Init(PORT_LED, PIN_LED, GPIO_MODE_OUT_PP_HIGH_FAST);
      000031 4B F0            [ 1]   99 	push	#0xf0
      000033 4B 10            [ 1]  100 	push	#0x10
      000035 4B 0A            [ 1]  101 	push	#0x0a
      000037 4B 50            [ 1]  102 	push	#0x50
      000039 CDr00r00         [ 4]  103 	call	_GPIO_Init
      00003C 5B 04            [ 2]  104 	addw	sp, #4
                                    105 ;	user/ledss.c: 21: TIMER_InitTime(&led.tick);
      00003E 1E 01            [ 2]  106 	ldw	x, (0x01, sp)
      000040 89               [ 2]  107 	pushw	x
      000041 CDr00r00         [ 4]  108 	call	_TIMER_InitTime
      000044 85               [ 2]  109 	popw	x
                                    110 ;	user/ledss.c: 22: led_change(LED_FLASH, 10);
      000045 4B 0A            [ 1]  111 	push	#0x0a
      000047 4B 02            [ 1]  112 	push	#0x02
      000049 CDr00r00         [ 4]  113 	call	_led_change
      00004C 5B 04            [ 2]  114 	addw	sp, #4
      00004E 81               [ 4]  115 	ret
                                    116 ;	user/ledss.c: 25: void ledstt_manager(void)
                                    117 ;	-----------------------------------------
                                    118 ;	 function ledstt_manager
                                    119 ;	-----------------------------------------
      00004F                        120 _ledstt_manager:
      00004F 89               [ 2]  121 	pushw	x
                                    122 ;	user/ledss.c: 27: if(!TIMER_CheckTimeMS(&led.tick, 200))
      000050 AEr00r00         [ 2]  123 	ldw	x, #_led+0
      000053 4B C8            [ 1]  124 	push	#0xc8
      000055 4B 00            [ 1]  125 	push	#0x00
      000057 4B 00            [ 1]  126 	push	#0x00
      000059 4B 00            [ 1]  127 	push	#0x00
      00005B 89               [ 2]  128 	pushw	x
      00005C CDr00r00         [ 4]  129 	call	_TIMER_CheckTimeMS
      00005F 5B 06            [ 2]  130 	addw	sp, #6
      000061 4D               [ 1]  131 	tnz	a
      000062 26 62            [ 1]  132 	jrne	00115$
                                    133 ;	user/ledss.c: 29: if(led.mode == LED_ON)
      000064 AEr00r00         [ 2]  134 	ldw	x, #_led+0
      000067 1F 01            [ 2]  135 	ldw	(0x01, sp), x
      000069 1E 01            [ 2]  136 	ldw	x, (0x01, sp)
      00006B 1C 00 06         [ 2]  137 	addw	x, #0x0006
      00006E F6               [ 1]  138 	ld	a, (x)
      00006F A1 01            [ 1]  139 	cp	a, #0x01
      000071 26 0D            [ 1]  140 	jrne	00111$
                                    141 ;	user/ledss.c: 30: GPIO_WriteLow(PORT_LED, PIN_LED);
      000073 4B 10            [ 1]  142 	push	#0x10
      000075 4B 0A            [ 1]  143 	push	#0x0a
      000077 4B 50            [ 1]  144 	push	#0x50
      000079 CDr00r00         [ 4]  145 	call	_GPIO_WriteLow
      00007C 5B 03            [ 2]  146 	addw	sp, #3
      00007E 20 46            [ 2]  147 	jra	00115$
      000080                        148 00111$:
                                    149 ;	user/ledss.c: 31: else if(led.mode == LED_OFF)
      000080 4D               [ 1]  150 	tnz	a
      000081 26 0D            [ 1]  151 	jrne	00108$
                                    152 ;	user/ledss.c: 32: GPIO_WriteHigh(PORT_LED, PIN_LED);
      000083 4B 10            [ 1]  153 	push	#0x10
      000085 4B 0A            [ 1]  154 	push	#0x0a
      000087 4B 50            [ 1]  155 	push	#0x50
      000089 CDr00r00         [ 4]  156 	call	_GPIO_WriteHigh
      00008C 5B 03            [ 2]  157 	addw	sp, #3
      00008E 20 36            [ 2]  158 	jra	00115$
      000090                        159 00108$:
                                    160 ;	user/ledss.c: 35: if(led.timeOn != 0)
      000090 16 01            [ 2]  161 	ldw	y, (0x01, sp)
      000092 72 A9 00 07      [ 2]  162 	addw	y, #0x0007
      000096 90 F6            [ 1]  163 	ld	a, (y)
      000098 4D               [ 1]  164 	tnz	a
      000099 27 2A            [ 1]  165 	jreq	00105$
                                    166 ;	user/ledss.c: 37: led.timeOn--;
      00009B 4A               [ 1]  167 	dec	a
      00009C 90 F7            [ 1]  168 	ld	(y), a
                                    169 ;	user/ledss.c: 38: if(led.cycle == 0)
      00009E 1E 01            [ 2]  170 	ldw	x, (0x01, sp)
      0000A0 1C 00 08         [ 2]  171 	addw	x, #0x0008
      0000A3 F6               [ 1]  172 	ld	a, (x)
      0000A4 4D               [ 1]  173 	tnz	a
      0000A5 26 10            [ 1]  174 	jrne	00102$
                                    175 ;	user/ledss.c: 40: led.cycle = 1;
      0000A7 A6 01            [ 1]  176 	ld	a, #0x01
      0000A9 F7               [ 1]  177 	ld	(x), a
                                    178 ;	user/ledss.c: 41: GPIO_WriteLow(PORT_LED, PIN_LED);
      0000AA 4B 10            [ 1]  179 	push	#0x10
      0000AC 4B 0A            [ 1]  180 	push	#0x0a
      0000AE 4B 50            [ 1]  181 	push	#0x50
      0000B0 CDr00r00         [ 4]  182 	call	_GPIO_WriteLow
      0000B3 5B 03            [ 2]  183 	addw	sp, #3
      0000B5 20 0F            [ 2]  184 	jra	00115$
      0000B7                        185 00102$:
                                    186 ;	user/ledss.c: 45: led.cycle = 0;
      0000B7 7F               [ 1]  187 	clr	(x)
                                    188 ;	user/ledss.c: 46: GPIO_WriteHigh(PORT_LED, PIN_LED);
      0000B8 4B 10            [ 1]  189 	push	#0x10
      0000BA 4B 0A            [ 1]  190 	push	#0x0a
      0000BC 4B 50            [ 1]  191 	push	#0x50
      0000BE CDr00r00         [ 4]  192 	call	_GPIO_WriteHigh
      0000C1 5B 03            [ 2]  193 	addw	sp, #3
      0000C3 20 01            [ 2]  194 	jra	00115$
      0000C5                        195 00105$:
                                    196 ;	user/ledss.c: 50: led.mode = LED_OFF;
      0000C5 7F               [ 1]  197 	clr	(x)
      0000C6                        198 00115$:
      0000C6 85               [ 2]  199 	popw	x
      0000C7 81               [ 4]  200 	ret
                                    201 	.area CODE
                                    202 	.area INITIALIZER
                                    203 	.area CABS (ABS)
